#include <math.h>
#include <stdio.h>
#include <stdlib.h>
#include <string.h>

void main()
{
	int n,i,j,a[3900],k=0;
	scanf("%d",&n);
	if(n<5)
		printf("empty\n");
	else
	{
	  for(i=2;i<=n;i++)
	  {for(j=2;j<i; )
	  {if(i%j==0)
				break;
			else 
				j++;}
	  if(j==i)
		{a[k]=i;k++;}
	  }

	 for(i=0;i<k;i++)
	
		if(a[i+1]-a[i]==2)
			printf("%d %d\n",a[i],a[i+1]);
	}
}
